; ModuleID = '56/2057.c'
source_filename = "56/2057.c"
target datalayout = "e-m:e-p270:32:32-p271:32:32-p272:64:64-i64:64-f80:128-n8:16:32:64-S128"
target triple = "x86_64-pc-linux-gnu"

@.str = private unnamed_addr constant [3 x i8] c"%d\00", align 1
@.str.1 = private unnamed_addr constant [6 x i8] c"error\00", align 1

; Function Attrs: noinline nounwind uwtable
define dso_local void @main() #0 {
  %1 = alloca i32, align 4
  %2 = alloca i32, align 4
  %3 = alloca i32, align 4
  %4 = alloca i32, align 4
  %5 = alloca i32, align 4
  %6 = alloca i32, align 4
  %7 = alloca i32, align 4
  %8 = call i32 (i8*, ...) @__isoc99_scanf(i8* getelementptr inbounds ([3 x i8], [3 x i8]* @.str, i64 0, i64 0), i32* %6)
  %9 = load i32, i32* %6, align 4
  %10 = srem i32 %9, 10
  store i32 %10, i32* %5, align 4
  %11 = load i32, i32* %6, align 4
  %12 = srem i32 %11, 100
  %13 = load i32, i32* %5, align 4
  %14 = sub nsw i32 %12, %13
  %15 = sdiv i32 %14, 10
  store i32 %15, i32* %4, align 4
  %16 = load i32, i32* %6, align 4
  %17 = srem i32 %16, 1000
  %18 = load i32, i32* %4, align 4
  %19 = mul nsw i32 %18, 10
  %20 = sub nsw i32 %17, %19
  %21 = load i32, i32* %5, align 4
  %22 = sub nsw i32 %20, %21
  %23 = sdiv i32 %22, 100
  store i32 %23, i32* %3, align 4
  %24 = load i32, i32* %6, align 4
  %25 = srem i32 %24, 10000
  %26 = load i32, i32* %3, align 4
  %27 = mul nsw i32 %26, 100
  %28 = sub nsw i32 %25, %27
  %29 = load i32, i32* %4, align 4
  %30 = mul nsw i32 %29, 10
  %31 = sub nsw i32 %28, %30
  %32 = load i32, i32* %5, align 4
  %33 = mul nsw i32 %32, 1
  %34 = sub nsw i32 %31, %33
  %35 = sdiv i32 %34, 1000
  store i32 %35, i32* %2, align 4
  %36 = load i32, i32* %6, align 4
  %37 = srem i32 %36, 100000
  %38 = load i32, i32* %2, align 4
  %39 = mul nsw i32 %38, 1000
  %40 = sub nsw i32 %37, %39
  %41 = load i32, i32* %3, align 4
  %42 = mul nsw i32 %41, 100
  %43 = sub nsw i32 %40, %42
  %44 = load i32, i32* %4, align 4
  %45 = mul nsw i32 %44, 10
  %46 = sub nsw i32 %43, %45
  %47 = load i32, i32* %5, align 4
  %48 = mul nsw i32 %47, 1
  %49 = sub nsw i32 %46, %48
  %50 = sdiv i32 %49, 10000
  store i32 %50, i32* %1, align 4
  %51 = load i32, i32* %1, align 4
  %52 = icmp ne i32 %51, 0
  br i1 %52, label %53, label %69

53:                                               ; preds = %0
  %54 = load i32, i32* %5, align 4
  %55 = mul nsw i32 %54, 10000
  %56 = load i32, i32* %4, align 4
  %57 = mul nsw i32 %56, 1000
  %58 = add nsw i32 %55, %57
  %59 = load i32, i32* %3, align 4
  %60 = mul nsw i32 %59, 100
  %61 = add nsw i32 %58, %60
  %62 = load i32, i32* %2, align 4
  %63 = mul nsw i32 %62, 10
  %64 = add nsw i32 %61, %63
  %65 = load i32, i32* %1, align 4
  %66 = add nsw i32 %64, %65
  store i32 %66, i32* %7, align 4
  %67 = load i32, i32* %7, align 4
  %68 = call i32 (i8*, ...) @printf(i8* getelementptr inbounds ([3 x i8], [3 x i8]* @.str, i64 0, i64 0), i32 %67)
  br label %122

69:                                               ; preds = %0
  %70 = load i32, i32* %2, align 4
  %71 = icmp ne i32 %70, 0
  br i1 %71, label %72, label %85

72:                                               ; preds = %69
  %73 = load i32, i32* %5, align 4
  %74 = mul nsw i32 %73, 1000
  %75 = load i32, i32* %4, align 4
  %76 = mul nsw i32 %75, 100
  %77 = add nsw i32 %74, %76
  %78 = load i32, i32* %3, align 4
  %79 = mul nsw i32 %78, 10
  %80 = add nsw i32 %77, %79
  %81 = load i32, i32* %2, align 4
  %82 = add nsw i32 %80, %81
  store i32 %82, i32* %7, align 4
  %83 = load i32, i32* %7, align 4
  %84 = call i32 (i8*, ...) @printf(i8* getelementptr inbounds ([3 x i8], [3 x i8]* @.str, i64 0, i64 0), i32 %83)
  br label %121

85:                                               ; preds = %69
  %86 = load i32, i32* %3, align 4
  %87 = icmp ne i32 %86, 0
  br i1 %87, label %88, label %99

88:                                               ; preds = %85
  %89 = load i32, i32* %5, align 4
  %90 = mul nsw i32 %89, 100
  %91 = load i32, i32* %4, align 4
  %92 = mul nsw i32 %91, 10
  %93 = add nsw i32 %90, %92
  %94 = load i32, i32* %3, align 4
  %95 = mul nsw i32 %94, 1
  %96 = add nsw i32 %93, %95
  store i32 %96, i32* %7, align 4
  %97 = load i32, i32* %7, align 4
  %98 = call i32 (i8*, ...) @printf(i8* getelementptr inbounds ([3 x i8], [3 x i8]* @.str, i64 0, i64 0), i32 %97)
  br label %120

99:                                               ; preds = %85
  %100 = load i32, i32* %4, align 4
  %101 = icmp ne i32 %100, 0
  br i1 %101, label %102, label %109

102:                                              ; preds = %99
  %103 = load i32, i32* %5, align 4
  %104 = mul nsw i32 %103, 10
  %105 = load i32, i32* %4, align 4
  %106 = add nsw i32 %104, %105
  store i32 %106, i32* %7, align 4
  %107 = load i32, i32* %7, align 4
  %108 = call i32 (i8*, ...) @printf(i8* getelementptr inbounds ([3 x i8], [3 x i8]* @.str, i64 0, i64 0), i32 %107)
  br label %119

109:                                              ; preds = %99
  %110 = load i32, i32* %5, align 4
  %111 = icmp ne i32 %110, 0
  br i1 %111, label %112, label %116

112:                                              ; preds = %109
  %113 = load i32, i32* %5, align 4
  store i32 %113, i32* %7, align 4
  %114 = load i32, i32* %7, align 4
  %115 = call i32 (i8*, ...) @printf(i8* getelementptr inbounds ([3 x i8], [3 x i8]* @.str, i64 0, i64 0), i32 %114)
  br label %118

116:                                              ; preds = %109
  %117 = call i32 (i8*, ...) @printf(i8* getelementptr inbounds ([6 x i8], [6 x i8]* @.str.1, i64 0, i64 0))
  br label %118

118:                                              ; preds = %116, %112
  br label %119

119:                                              ; preds = %118, %102
  br label %120

120:                                              ; preds = %119, %88
  br label %121

121:                                              ; preds = %120, %72
  br label %122

122:                                              ; preds = %121, %53
  ret void
}

declare dso_local i32 @__isoc99_scanf(i8*, ...) #1

declare dso_local i32 @printf(i8*, ...) #1


!llvm.module.flags = !{!0}
!llvm.ident = !{!1}

!0 = !{i32 1, !"wchar_size", i32 4}
!1 = !{!"clang version 10.0.0-4ubuntu1 "}
